; ModuleID = 'source-C-CXX/59/145.c'
source_filename = "source-C-CXX/59/145.c"
target datalayout = "e-m:e-p270:32:32-p271:32:32-p272:64:64-i64:64-f80:128-n8:16:32:64-S128"
target triple = "x86_64-pc-linux-gnu"

@.str = private unnamed_addr constant [3 x i8] c"%d\00", align 1
@.str.1 = private unnamed_addr constant [6 x i8] c"empty\00", align 1
@.str.2 = private unnamed_addr constant [7 x i8] c"%d %d\0A\00", align 1

; Function Attrs: nofree nounwind sspstrong uwtable
define dso_local void @main() local_unnamed_addr #0 {
  %1 = alloca i32, align 4
  %2 = bitcast i32* %1 to i8*
  call void @llvm.lifetime.start.p0i8(i64 4, i8* nonnull %2) #4
  %3 = call i32 (i8*, ...) @__isoc99_scanf(i8* getelementptr inbounds ([3 x i8], [3 x i8]* @.str, i64 0, i64 0), i32* nonnull %1)
  %4 = load i32, i32* %1, align 4, !tbaa !5
  %5 = icmp slt i32 %4, 5
  br i1 %5, label %6, label %10

6:                                                ; preds = %0
  %7 = call i32 (i8*, ...) @printf(i8* nonnull dereferenceable(1) getelementptr inbounds ([6 x i8], [6 x i8]* @.str.1, i64 0, i64 0))
  %8 = load i32, i32* %1, align 4, !tbaa !5
  %9 = icmp slt i32 %8, 5
  br i1 %9, label %45, label %10

10:                                               ; preds = %0, %6
  %11 = phi i32 [ %4, %0 ], [ %8, %6 ]
  br label %12

12:                                               ; preds = %10, %39
  %13 = phi i32 [ %40, %39 ], [ %11, %10 ]
  %14 = phi i32 [ %44, %39 ], [ 2, %10 ]
  %15 = phi i32 [ %41, %39 ], [ 3, %10 ]
  %16 = phi i32 [ %42, %39 ], [ 5, %10 ]
  %17 = call i32 @llvm.smax.i32(i32 %14, i32 3)
  %18 = call i32 @llvm.umax.i32(i32 %14, i32 3)
  %19 = icmp ugt i32 %15, 4
  br i1 %19, label %24, label %22

20:                                               ; preds = %24
  %21 = icmp eq i32 %28, %18
  br i1 %21, label %22, label %24, !llvm.loop !9

22:                                               ; preds = %20, %12
  %23 = icmp ugt i32 %16, 6
  br i1 %23, label %31, label %36

24:                                               ; preds = %12, %20
  %25 = phi i32 [ %28, %20 ], [ 2, %12 ]
  %26 = urem i32 %15, %25
  %27 = icmp eq i32 %26, 0
  %28 = add nuw i32 %25, 1
  br i1 %27, label %39, label %20

29:                                               ; preds = %31
  %30 = icmp eq i32 %35, %17
  br i1 %30, label %36, label %31, !llvm.loop !11

31:                                               ; preds = %22, %29
  %32 = phi i32 [ %35, %29 ], [ 2, %22 ]
  %33 = urem i32 %16, %32
  %34 = icmp eq i32 %33, 0
  %35 = add nuw nsw i32 %32, 1
  br i1 %34, label %39, label %29

36:                                               ; preds = %29, %22
  %37 = call i32 (i8*, ...) @printf(i8* nonnull dereferenceable(1) getelementptr inbounds ([7 x i8], [7 x i8]* @.str.2, i64 0, i64 0), i32 %15, i32 %16)
  %38 = load i32, i32* %1, align 4, !tbaa !5
  br label %39

39:                                               ; preds = %24, %31, %36
  %40 = phi i32 [ %38, %36 ], [ %13, %31 ], [ %13, %24 ]
  %41 = add nuw nsw i32 %15, 2
  %42 = add nuw nsw i32 %16, 2
  %43 = icmp sgt i32 %42, %40
  %44 = add i32 %14, 1
  br i1 %43, label %45, label %12, !llvm.loop !12

45:                                               ; preds = %39, %6
  call void @llvm.lifetime.end.p0i8(i64 4, i8* nonnull %2) #4
  ret void
}

; Function Attrs: argmemonly mustprogress nofree nosync nounwind willreturn
declare void @llvm.lifetime.start.p0i8(i64 immarg, i8* nocapture) #1

; Function Attrs: nofree nounwind
declare noundef i32 @__isoc99_scanf(i8* nocapture noundef readonly, ...) local_unnamed_addr #2

; Function Attrs: nofree nounwind
declare noundef i32 @printf(i8* nocapture noundef readonly, ...) local_unnamed_addr #2

; Function Attrs: argmemonly mustprogress nofree nosync nounwind willreturn
declare void @llvm.lifetime.end.p0i8(i64 immarg, i8* nocapture) #1

; Function Attrs: nofree nosync nounwind readnone speculatable willreturn
declare i32 @llvm.umax.i32(i32, i32) #3

; Function Attrs: nofree nosync nounwind readnone speculatable willreturn
declare i32 @llvm.smax.i32(i32, i32) #3


!llvm.module.flags = !{!0, !1, !2, !3}
!llvm.ident = !{!4}

!0 = !{i32 1, !"wchar_size", i32 4}
!1 = !{i32 7, !"PIC Level", i32 2}
!2 = !{i32 7, !"PIE Level", i32 2}
!3 = !{i32 7, !"uwtable", i32 1}
!4 = !{!"clang version 13.0.0"}
!5 = !{!6, !6, i64 0}
!6 = !{!"int", !7, i64 0}
!7 = !{!"omnipotent char", !8, i64 0}
!8 = !{!"Simple C/C++ TBAA"}
!9 = distinct !{!9, !10}
!10 = !{!"llvm.loop.mustprogress"}
!11 = distinct !{!11, !10}
!12 = distinct !{!12, !10}
